
Discarded input sections

 .group         0x00000000        0x8 obj/flashrchw.o
 .group         0x00000000        0x8 obj/flashrchw.o
 .group         0x00000000        0x8 obj/flashrchw.o
 .group         0x00000000        0x8 obj/flashrchw.o
 .group         0x00000000        0x8 obj/flashrchw.o
 .text          0x00000000        0x0 obj/flashrchw.o
 .data          0x00000000        0x0 obj/flashrchw.o
 .bss           0x00000000        0x0 obj/flashrchw.o
 .cpu0_reset_vector
                0x00000000        0x4 obj/flashrchw.o
 .rchw          0x00000000        0x4 obj/flashrchw.o
 .debug_info    0x00000000       0xa5 obj/flashrchw.o
 .debug_abbrev  0x00000000       0x4e obj/flashrchw.o
 .debug_aranges
                0x00000000       0x18 obj/flashrchw.o
 .debug_macro   0x00000000       0x85 obj/flashrchw.o
 .debug_macro   0x00000000      0x616 obj/flashrchw.o
 .debug_macro   0x00000000       0x22 obj/flashrchw.o
 .debug_macro   0x00000000       0x44 obj/flashrchw.o
 .debug_macro   0x00000000       0x1c obj/flashrchw.o
 .debug_macro   0x00000000      0x1f7 obj/flashrchw.o
 .debug_line    0x00000000      0x175 obj/flashrchw.o
 .debug_str     0x00000000     0x2a15 obj/flashrchw.o
 .comment       0x00000000       0x5c obj/flashrchw.o
 .group         0x00000000        0x8 obj/intc_SW_mode_isr_vectors_MPC5748G.o
 .group         0x00000000        0x8 obj/intc_SW_mode_isr_vectors_MPC5748G.o
 .group         0x00000000        0x8 obj/intc_SW_mode_isr_vectors_MPC5748G.o
 .group         0x00000000        0x8 obj/intc_SW_mode_isr_vectors_MPC5748G.o
 .group         0x00000000        0x8 obj/intc_SW_mode_isr_vectors_MPC5748G.o
 .text          0x00000000        0x0 obj/intc_SW_mode_isr_vectors_MPC5748G.o
 .data          0x00000000        0x0 obj/intc_SW_mode_isr_vectors_MPC5748G.o
 .bss           0x00000000        0x0 obj/intc_SW_mode_isr_vectors_MPC5748G.o
 .debug_macro   0x00000000      0x616 obj/intc_SW_mode_isr_vectors_MPC5748G.o
 .debug_macro   0x00000000       0x22 obj/intc_SW_mode_isr_vectors_MPC5748G.o
 .debug_macro   0x00000000       0x44 obj/intc_SW_mode_isr_vectors_MPC5748G.o
 .debug_macro   0x00000000       0x1c obj/intc_SW_mode_isr_vectors_MPC5748G.o
 .debug_macro   0x00000000      0x1f7 obj/intc_SW_mode_isr_vectors_MPC5748G.o
 .group         0x00000000        0x8 obj/MPC57xx__Interrupt_Init.o
 .group         0x00000000        0x8 obj/MPC57xx__Interrupt_Init.o
 .group         0x00000000        0x8 obj/MPC57xx__Interrupt_Init.o
 .group         0x00000000        0x8 obj/MPC57xx__Interrupt_Init.o
 .group         0x00000000        0x8 obj/MPC57xx__Interrupt_Init.o
 .group         0x00000000        0x8 obj/MPC57xx__Interrupt_Init.o
 .group         0x00000000        0x8 obj/MPC57xx__Interrupt_Init.o
 .text          0x00000000        0x0 obj/MPC57xx__Interrupt_Init.o
 .data          0x00000000        0x0 obj/MPC57xx__Interrupt_Init.o
 .bss           0x00000000        0x0 obj/MPC57xx__Interrupt_Init.o
 .text.SetIVPR  0x00000000        0x6 obj/MPC57xx__Interrupt_Init.o
 .debug_macro   0x00000000      0x616 obj/MPC57xx__Interrupt_Init.o
 .debug_macro   0x00000000       0x22 obj/MPC57xx__Interrupt_Init.o
 .debug_macro   0x00000000       0x44 obj/MPC57xx__Interrupt_Init.o
 .debug_macro   0x00000000       0x1c obj/MPC57xx__Interrupt_Init.o
 .debug_macro   0x00000000      0x1f7 obj/MPC57xx__Interrupt_Init.o
 .group         0x00000000        0x8 obj/Vector.o
 .group         0x00000000        0x8 obj/Vector.o
 .text          0x00000000        0x0 obj/Vector.o
 .data          0x00000000        0x0 obj/Vector.o
 .bss           0x00000000        0x0 obj/Vector.o
 .debug_macro   0x00000000      0x616 obj/Vector.o
 .debug_macro   0x00000000       0x2e obj/Vector.o
 .group         0x00000000        0x8 obj/main.o
 .group         0x00000000        0x8 obj/main.o
 .group         0x00000000        0x8 obj/main.o
 .group         0x00000000        0x8 obj/main.o
 .group         0x00000000        0x8 obj/main.o
 .group         0x00000000        0x8 obj/main.o
 .group         0x00000000        0x8 obj/main.o
 .group         0x00000000        0x8 obj/main.o
 .text          0x00000000        0x0 obj/main.o
 .data          0x00000000        0x0 obj/main.o
 .bss           0x00000000        0x0 obj/main.o
 .debug_macro   0x00000000      0x616 obj/main.o
 .debug_macro   0x00000000       0x22 obj/main.o
 .debug_macro   0x00000000       0x44 obj/main.o
 .debug_macro   0x00000000       0x1c obj/main.o
 .debug_macro   0x00000000      0x1f7 obj/main.o
 .debug_macro   0x00000000    0x1814c obj/main.o
 .text          0x00000000        0x0 obj/startup.o
 .data          0x00000000        0x0 obj/startup.o
 .bss           0x00000000        0x0 obj/startup.o
 .data          0x00000000        0x0 obj/intc_sw_handlers.o
 .bss           0x00000000        0x0 obj/intc_sw_handlers.o

Memory Configuration

Name             Origin             Length             Attributes
SRAM             0x40000000         0x00040000
*default*        0x00000000         0xffffffff

Linker script and memory map

LOAD obj/flashrchw.o
LOAD obj/intc_SW_mode_isr_vectors_MPC5748G.o
LOAD obj/MPC57xx__Interrupt_Init.o
LOAD obj/Vector.o
LOAD obj/main.o
LOAD obj/startup.o
LOAD obj/intc_sw_handlers.o
                0x00000000                __HEAP_SIZE = 0x0
                0x00001000                __STACK_SIZE = 0x1000
                0x00040000                SRAM_SIZE = 0x40000
                0x40000000                SRAM_BASE_ADDR = 0x40000000

.startup        0x40000000      0x26a
                0x40000000                __start = .
 *(.startup)
 .startup       0x40000000      0x26a obj/startup.o
                0x40000000                _start

.core_exceptions_table
                0x40001000       0xf4
                0x40001000                __IVPR_VALUE = .
 *(.core_exceptions_table)
 .core_exceptions_table
                0x40001000       0xf4 obj/Vector.o
                0x40001000                IVOR0_Vector
                0x40001000                VTABLE
                0x40001010                IVOR1_Vector
                0x40001020                IVOR2_Vector
                0x40001030                IVOR3_Vector
                0x40001040                IVOR4_Vector
                0x40001050                IVOR5_Vector
                0x40001060                IVOR6_Vector
                0x40001070                IVOR7_Vector
                0x40001080                IVOR8_Vector
                0x40001090                IVOR9_Vector
                0x400010a0                IVOR10_Vector
                0x400010b0                IVOR11_Vector
                0x400010c0                IVOR12_Vector
                0x400010d0                IVOR13_Vector
                0x400010e0                IVOR14_Vector
                0x400010f0                IVOR15_Vector

.intc_vector_table
                0x40002000      0xbc8
 *(.intc_vector_table)
 .intc_vector_table
                0x40002000      0xbc8 obj/intc_SW_mode_isr_vectors_MPC5748G.o
                0x40002000                IntcIsrVectorTable

.text           0x40002bd0      0x5c0
 *(.text.startup)
 *(.text)
 .text          0x40002bd0       0x48 obj/intc_sw_handlers.o
                0x40002bd0                IVOR4_Handler
 *(.init)
 *(.text.*)
 .text.dummy    0x40002c18        0x4 obj/intc_SW_mode_isr_vectors_MPC5748G.o
                0x40002c18                dummy
 .text.InitINTC
                0x40002c1c       0x3e obj/MPC57xx__Interrupt_Init.o
                0x40002c1c                InitINTC
 .text.enableIrq
                0x40002c5a       0x22 obj/MPC57xx__Interrupt_Init.o
                0x40002c5a                enableIrq
 .text.xcptn_xmpl
                0x40002c7c       0x24 obj/MPC57xx__Interrupt_Init.o
                0x40002c7c                xcptn_xmpl
 .text.delay    0x40002ca0       0x22 obj/main.o
                0x40002ca0                delay
 .text.writeLeds
                0x40002cc2      0x174 obj/main.o
                0x40002cc2                writeLeds
 .text.initPin  0x40002e36      0x216 obj/main.o
                0x40002e36                initPin
 .text.SW1_ISR  0x4000304c       0x86 obj/main.o
                0x4000304c                SW1_ISR
 .text.SW2_ISR  0x400030d2       0x70 obj/main.o
                0x400030d2                SW2_ISR
 .text.main     0x40003142       0x42 obj/main.o
                0x40003142                main
                0x40003190                . = ALIGN (0x10)
 *fill*         0x40003184        0xc 

.glink          0x40003190        0x0
 .glink         0x40003190        0x0 obj/intc_SW_mode_isr_vectors_MPC5748G.o

.rodata
 *(.rodata)
 *(.rodata.*)

.eh_frame_hdr   0x40003190        0x0
 *(.eh_frame_hdr)
 .eh_frame_hdr  0x40003190        0x0 obj/intc_sw_handlers.o

.eh_frame       0x40003190        0x0
 *(.eh_frame)
 .eh_frame      0x40003190        0x0 obj/intc_SW_mode_isr_vectors_MPC5748G.o

.data           0x40003190        0x0
 *(.data)
 *(.data.*)

.sdata2         0x40003190        0x0
 *(.sdata2)
 .sdata2        0x40003190        0x0 obj/intc_SW_mode_isr_vectors_MPC5748G.o
 *(.sdata2.*)

.rela.dyn       0x40003190        0x0
 .rela.iplt     0x40003190        0x0 obj/intc_SW_mode_isr_vectors_MPC5748G.o
 .rela.intc_vector_table
                0x40003190        0x0 obj/intc_SW_mode_isr_vectors_MPC5748G.o
 .rela.text.xcptn_xmpl
                0x40003190        0x0 obj/intc_SW_mode_isr_vectors_MPC5748G.o

.sbss2
 *(.sbss2)
 *(.sbss2.*)

.sdata          0x40003190        0x4
 *(.sdata)
 .sdata         0x40003190        0x0 obj/intc_SW_mode_isr_vectors_MPC5748G.o
                0x4000b190                _SDA_BASE_
 *(.sdata.*)
 .sdata.time    0x40003190        0x4 obj/main.o
                0x40003190                time

.bss            0x40003194        0x2
                0x40003194                __BSS_START = .
 *(.sbss)
 *(.sbss.*)
 *(.bss)
 *(.bss.*)
 .bss.flag.15756
                0x40003194        0x1 obj/main.o
 .bss.flag2.15765
                0x40003195        0x1 obj/main.o
 *(COMMON)
                0x40003196                __BSS_END = .

.iplt           0x400031a0        0x0
 .iplt          0x400031a0        0x0 obj/intc_SW_mode_isr_vectors_MPC5748G.o

.stack          0x400031a0     0x1004
                0x400031a0                __HEAP = .
                0x400031a0                PROVIDE (_end, .)
                0x400031a0                PROVIDE (end, .)
                0x400031a0                . = (. + __HEAP_SIZE)
                0x400031a0                __HEAP_END = .
                0x400031a0                _stack_end = .
                0x400041a0                . = (. + __STACK_SIZE)
 *fill*         0x400031a0     0x1000 
                0x400041a0                _stack_addr = .
                0x400041a0                __SP_INIT = .
                0x400041a4                . = (. + 0x4)
 *fill*         0x400041a0        0x4 
                0x40003190                __DATA_SRAM_ADDR = ADDR (.data)
                0x40003190                __SDATA_SRAM_ADDR = ADDR (.sdata)
                0x00000000                __DATA_SIZE = SIZEOF (.data)
                0x00000004                __SDATA_SIZE = SIZEOF (.sdata)
                0x40003190                __DATA_ROM_ADDR = LOADADDR (.data)
                0x40003190                __SDATA_ROM_ADDR = LOADADDR (.sdata)
                0x00040000                __SRAM_SIZE = SRAM_SIZE
                0x40000000                __SRAM_BASE_ADDR = SRAM_BASE_ADDR
                0x00000002                __BSS_SIZE = (__BSS_END - __BSS_START)
OUTPUT(app_ram.elf elf32-powerpc)

.debug_info     0x00000000     0x2705
 .debug_info    0x00000000       0xc6 obj/intc_SW_mode_isr_vectors_MPC5748G.o
 .debug_info    0x000000c6      0x51a obj/MPC57xx__Interrupt_Init.o
 .debug_info    0x000005e0       0x21 obj/Vector.o
 .debug_info    0x00000601     0x1fd9 obj/main.o
 .debug_info    0x000025da       0x9f obj/startup.o
 .debug_info    0x00002679       0x8c obj/intc_sw_handlers.o

.debug_abbrev   0x00000000      0x4aa
 .debug_abbrev  0x00000000       0x7c obj/intc_SW_mode_isr_vectors_MPC5748G.o
 .debug_abbrev  0x0000007c      0x1a3 obj/MPC57xx__Interrupt_Init.o
 .debug_abbrev  0x0000021f       0x13 obj/Vector.o
 .debug_abbrev  0x00000232      0x250 obj/main.o
 .debug_abbrev  0x00000482       0x14 obj/startup.o
 .debug_abbrev  0x00000496       0x14 obj/intc_sw_handlers.o

.debug_aranges  0x00000000       0xf8
 .debug_aranges
                0x00000000       0x20 obj/intc_SW_mode_isr_vectors_MPC5748G.o
 .debug_aranges
                0x00000020       0x38 obj/MPC57xx__Interrupt_Init.o
 .debug_aranges
                0x00000058       0x18 obj/Vector.o
 .debug_aranges
                0x00000070       0x48 obj/main.o
 .debug_aranges
                0x000000b8       0x20 obj/startup.o
 .debug_aranges
                0x000000d8       0x20 obj/intc_sw_handlers.o

.debug_ranges   0x00000000       0x70
 .debug_ranges  0x00000000       0x10 obj/intc_SW_mode_isr_vectors_MPC5748G.o
 .debug_ranges  0x00000010       0x28 obj/MPC57xx__Interrupt_Init.o
 .debug_ranges  0x00000038       0x38 obj/main.o

.debug_macro    0x00000000    0x18f03
 .debug_macro   0x00000000       0x55 obj/intc_SW_mode_isr_vectors_MPC5748G.o
 .debug_macro   0x00000055       0x7e obj/MPC57xx__Interrupt_Init.o
 .debug_macro   0x000000d3    0x1814c obj/MPC57xx__Interrupt_Init.o
 .debug_macro   0x0001821f       0x2e obj/MPC57xx__Interrupt_Init.o
 .debug_macro   0x0001824d       0x26 obj/Vector.o
 .debug_macro   0x00018273      0x11b obj/main.o
 .debug_macro   0x0001838e       0x22 obj/main.o
 .debug_macro   0x000183b0      0xb53 obj/main.o

.debug_line     0x00000000      0x880
 .debug_line    0x00000000      0x1a2 obj/intc_SW_mode_isr_vectors_MPC5748G.o
 .debug_line    0x000001a2      0x20b obj/MPC57xx__Interrupt_Init.o
 .debug_line    0x000003ad       0x49 obj/Vector.o
 .debug_line    0x000003f6      0x33c obj/main.o
 .debug_line    0x00000732       0xf4 obj/startup.o
 .debug_line    0x00000826       0x5a obj/intc_sw_handlers.o

.debug_str      0x00000000    0x67e42
 .debug_str     0x00000000     0x2820 obj/intc_SW_mode_isr_vectors_MPC5748G.o
                               0x2974 (size before relaxing)
 .debug_str     0x00002820    0x63ae5 obj/MPC57xx__Interrupt_Init.o
                              0x6643c (size before relaxing)
 .debug_str     0x00066305       0x72 obj/Vector.o
                               0x1f74 (size before relaxing)
 .debug_str     0x00066377     0x1acb obj/main.o
                              0x67d5a (size before relaxing)

.comment        0x00000000       0x5b
 .comment       0x00000000       0x5b obj/intc_SW_mode_isr_vectors_MPC5748G.o
                                 0x5c (size before relaxing)
 .comment       0x0000005b       0x5c obj/MPC57xx__Interrupt_Init.o
 .comment       0x0000005b       0x5c obj/Vector.o
 .comment       0x0000005b       0x5c obj/main.o

.PPC.EMB.apuinfo
                0x00000000       0x18
 .PPC.EMB.apuinfo
                0x00000000       0x18 obj/intc_SW_mode_isr_vectors_MPC5748G.o
 .PPC.EMB.apuinfo
                0x00000018       0x18 obj/MPC57xx__Interrupt_Init.o
 .PPC.EMB.apuinfo
                0x00000030       0x18 obj/Vector.o
 .PPC.EMB.apuinfo
                0x00000048       0x18 obj/main.o
 .PPC.EMB.apuinfo
                0x00000060       0x18 obj/startup.o
 .PPC.EMB.apuinfo
                0x00000078       0x18 obj/intc_sw_handlers.o

.debug_frame    0x00000000      0x104
 .debug_frame   0x00000000       0x20 obj/intc_SW_mode_isr_vectors_MPC5748G.o
 .debug_frame   0x00000020       0x60 obj/MPC57xx__Interrupt_Init.o
 .debug_frame   0x00000080       0x84 obj/main.o

.debug_loc      0x00000000       0xa0
 .debug_loc     0x00000000       0x13 obj/MPC57xx__Interrupt_Init.o
 .debug_loc     0x00000013       0x8d obj/main.o
